; Function Attrs: mustprogress nofree norecurse nosync nounwind willreturn memory(argmem: read) uwtable
define { ptr, ptr } @_Z16localSettleAtomsRK22InteractionDefinitions(ptr nocapture noundef nonnull readonly align 8 dereferenceable(2736) %0) local_unnamed_addr #12 {
  %2 = getelementptr inbounds i8, ptr %0, i64 1600
  %3 = load ptr, ptr %2, align 8
  %4 = getelementptr inbounds i8, ptr %0, i64 1608
  %5 = load ptr, ptr %4, align 8
  %6 = ptrtoint ptr %5 to i64
  %7 = ptrtoint ptr %3 to i64
  %8 = sub i64 %6, %7
  %9 = getelementptr inbounds i8, ptr %3, i64 %8
  %.fca.0.insert = insertvalue { ptr, ptr } poison, ptr %3, 0
  %.fca.1.insert = insertvalue { ptr, ptr } %.fca.0.insert, ptr %9, 1
  ret { ptr, ptr } %.fca.1.insert
}